((lp1
(lp2
I51
aI1
aI685
aI1
aI6
aI66
aI276
aI391
aI1
aI98
aI1
aI1
aI5
aI1
aI27
aI4
aI2
aI1
aI4
aI89
aI1
aI8
aI69
aa(lp3
I51
aI1
aI685
aI1
aI6
aI66
aI276
aI391
aI1
aI98
aI1
aI1
aI5
aI1
aI27
aI4
aI2
aI1
aI4
aI89
aI1
aI8
aI69
aa(lp4
I51
aI1
aI685
aI1
aI6
aI66
aI276
aI391
aI1
aI98
aI1
aI1
aI5
aI1
aI27
aI4
aI2
aI1
aI4
aI89
aI1
aI8
aI69
aa(lp5
I51
aI1
aI685
aI1
aI6
aI66
aI276
aI391
aI1
aI98
aI1
aI1
aI5
aI1
aI27
aI4
aI2
aI1
aI4
aI89
aI1
aI8
aI69
aa(lp6
I51
aI1
aI685
aI1
aI6
aI66
aI276
aI391
aI1
aI98
aI1
aI1
aI5
aI1
aI27
aI4
aI2
aI1
aI4
aI89
aI1
aI8
aI69
aa(lp7
I51
aI1
aI685
aI1
aI6
aI66
aI276
aI391
aI1
aI98
aI1
aI1
aI5
aI1
aI27
aI4
aI2
aI1
aI4
aI89
aI1
aI8
aI69
aa(lp8
I51
aI1
aI685
aI1
aI6
aI66
aI276
aI391
aI1
aI98
aI1
aI1
aI5
aI1
aI27
aI4
aI2
aI1
aI4
aI89
aI1
aI8
aI69
aa(lp9
I51
aI1
aI685
aI1
aI6
aI66
aI276
aI391
aI1
aI98
aI1
aI1
aI5
aI1
aI27
aI4
aI2
aI1
aI4
aI89
aI1
aI8
aI69
aa(lp10
I51
aI1
aI685
aI1
aI6
aI66
aI276
aI391
aI1
aI98
aI1
aI1
aI5
aI1
aI27
aI4
aI2
aI1
aI4
aI89
aI1
aI8
aI69
aa(lp11
I51
aI1
aI685
aI1
aI6
aI66
aI276
aI391
aI1
aI98
aI1
aI1
aI5
aI1
aI27
aI4
aI2
aI1
aI4
aI89
aI1
aI8
aI69
aa(lp12
I51
aI1
aI685
aI1
aI6
aI66
aI276
aI391
aI1
aI98
aI1
aI1
aI5
aI1
aI27
aI4
aI2
aI1
aI4
aI89
aI1
aI8
aI69
aa(lp13
I51
aI1
aI685
aI1
aI6
aI66
aI276
aI391
aI1
aI98
aI1
aI1
aI5
aI1
aI27
aI4
aI2
aI1
aI4
aI89
aI1
aI8
aI69
aa(lp14
I51
aI1
aI685
aI1
aI6
aI66
aI276
aI391
aI1
aI98
aI1
aI1
aI5
aI1
aI27
aI4
aI2
aI1
aI4
aI89
aI1
aI8
aI69
aa(lp15
I51
aI1
aI685
aI1
aI6
aI66
aI276
aI391
aI1
aI98
aI1
aI1
aI5
aI1
aI27
aI4
aI2
aI1
aI4
aI89
aI1
aI8
aI69
aa(lp16
I51
aI1
aI685
aI1
aI6
aI66
aI276
aI391
aI1
aI98
aI1
aI1
aI5
aI1
aI27
aI4
aI2
aI1
aI4
aI89
aI1
aI8
aI69
aa(lp17
I51
aI1
aI685
aI1
aI6
aI66
aI276
aI391
aI1
aI98
aI1
aI1
aI5
aI1
aI27
aI4
aI2
aI1
aI4
aI89
aI1
aI8
aI69
aa(lp18
I51
aI1
aI685
aI1
aI6
aI66
aI276
aI391
aI1
aI98
aI1
aI1
aI5
aI1
aI27
aI4
aI2
aI1
aI4
aI89
aI1
aI8
aI69
aa(lp19
I51
aI1
aI685
aI1
aI6
aI66
aI276
aI391
aI1
aI98
aI1
aI1
aI5
aI1
aI27
aI4
aI2
aI1
aI4
aI89
aI1
aI8
aI69
aa(lp20
I51
aI1
aI685
aI1
aI6
aI66
aI276
aI391
aI1
aI98
aI1
aI1
aI5
aI1
aI27
aI4
aI2
aI1
aI4
aI89
aI1
aI8
aI69
aa(lp21
I51
aI1
aI685
aI1
aI6
aI66
aI276
aI391
aI1
aI98
aI1
aI1
aI5
aI1
aI27
aI4
aI2
aI1
aI4
aI89
aI1
aI8
aI69
aa(lp22
I51
aI1
aI685
aI1
aI6
aI66
aI276
aI391
aI1
aI98
aI1
aI1
aI5
aI1
aI27
aI4
aI2
aI1
aI4
aI89
aI1
aI8
aI69
aa(lp23
I51
aI1
aI685
aI1
aI6
aI66
aI276
aI391
aI1
aI98
aI1
aI1
aI5
aI1
aI27
aI4
aI2
aI1
aI4
aI89
aI1
aI8
aI69
aa(lp24
I51
aI1
aI685
aI1
aI6
aI66
aI276
aI391
aI1
aI98
aI1
aI1
aI5
aI1
aI27
aI4
aI2
aI1
aI4
aI89
aI1
aI8
aI69
aa(lp25
I51
aI1
aI685
aI1
aI6
aI66
aI276
aI391
aI1
aI98
aI1
aI1
aI5
aI1
aI27
aI4
aI2
aI1
aI4
aI89
aI1
aI8
aI69
aa(lp26
I51
aI1
aI685
aI1
aI6
aI66
aI276
aI391
aI1
aI98
aI1
aI1
aI5
aI1
aI27
aI4
aI2
aI1
aI4
aI89
aI1
aI8
aI69
aa(lp27
I51
aI1
aI685
aI1
aI6
aI66
aI276
aI391
aI1
aI98
aI1
aI1
aI5
aI1
aI27
aI4
aI2
aI1
aI4
aI89
aI1
aI8
aI69
aa(lp28
I51
aI1
aI685
aI1
aI6
aI66
aI276
aI391
aI1
aI98
aI1
aI1
aI5
aI1
aI27
aI4
aI2
aI1
aI4
aI89
aI1
aI8
aI69
aa(lp29
I51
aI1
aI685
aI1
aI6
aI66
aI276
aI391
aI1
aI98
aI1
aI1
aI5
aI1
aI27
aI4
aI2
aI1
aI4
aI89
aI1
aI8
aI69
aa(lp30
I51
aI1
aI685
aI1
aI6
aI66
aI276
aI391
aI1
aI98
aI1
aI1
aI5
aI1
aI27
aI4
aI2
aI1
aI4
aI89
aI1
aI8
aI69
aa(lp31
I51
aI1
aI685
aI1
aI6
aI66
aI276
aI391
aI1
aI98
aI1
aI1
aI5
aI1
aI27
aI4
aI2
aI1
aI4
aI89
aI1
aI8
aI69
aa(lp32
I51
aI1
aI685
aI1
aI6
aI66
aI276
aI391
aI1
aI98
aI1
aI1
aI5
aI1
aI27
aI4
aI2
aI1
aI4
aI89
aI1
aI8
aI69
aa(lp33
I51
aI1
aI685
aI1
aI6
aI66
aI276
aI391
aI1
aI98
aI1
aI1
aI5
aI1
aI27
aI4
aI2
aI1
aI4
aI89
aI1
aI8
aI69
aa(lp34
I51
aI1
aI685
aI1
aI6
aI66
aI276
aI391
aI1
aI98
aI1
aI1
aI5
aI1
aI27
aI4
aI2
aI1
aI4
aI89
aI1
aI8
aI69
aa(lp35
I51
aI1
aI685
aI1
aI6
aI66
aI276
aI391
aI1
aI98
aI1
aI1
aI5
aI1
aI27
aI4
aI2
aI1
aI4
aI89
aI1
aI8
aI69
aa(lp36
I51
aI1
aI685
aI1
aI6
aI66
aI276
aI391
aI1
aI98
aI1
aI1
aI5
aI1
aI27
aI4
aI2
aI1
aI4
aI89
aI1
aI8
aI69
aa(lp37
I51
aI1
aI685
aI1
aI6
aI66
aI276
aI391
aI1
aI98
aI1
aI1
aI5
aI1
aI27
aI4
aI2
aI1
aI4
aI89
aI1
aI8
aI69
aa(lp38
I51
aI1
aI685
aI1
aI6
aI66
aI276
aI391
aI1
aI98
aI1
aI1
aI5
aI1
aI27
aI4
aI2
aI1
aI4
aI89
aI1
aI8
aI69
aa(lp39
I51
aI1
aI685
aI1
aI6
aI66
aI276
aI391
aI1
aI98
aI1
aI1
aI5
aI1
aI27
aI4
aI2
aI1
aI4
aI89
aI1
aI8
aI69
aa(lp40
I51
aI1
aI685
aI1
aI6
aI66
aI276
aI391
aI1
aI98
aI1
aI1
aI5
aI1
aI27
aI4
aI2
aI1
aI4
aI89
aI1
aI8
aI69
aa(lp41
I51
aI1
aI685
aI1
aI6
aI66
aI276
aI391
aI1
aI98
aI1
aI1
aI5
aI1
aI27
aI4
aI2
aI1
aI4
aI89
aI1
aI8
aI69
aa(lp42
I51
aI1
aI685
aI1
aI6
aI66
aI276
aI391
aI1
aI98
aI1
aI1
aI5
aI1
aI27
aI4
aI2
aI1
aI4
aI89
aI1
aI8
aI69
aa(lp43
I51
aI1
aI685
aI1
aI6
aI66
aI276
aI391
aI1
aI98
aI1
aI1
aI5
aI1
aI27
aI4
aI2
aI1
aI4
aI89
aI1
aI8
aI69
aa(lp44
I51
aI1
aI685
aI1
aI6
aI66
aI276
aI391
aI1
aI98
aI1
aI1
aI5
aI1
aI27
aI4
aI2
aI1
aI4
aI89
aI1
aI8
aI69
aa(lp45
I51
aI1
aI685
aI1
aI6
aI66
aI276
aI391
aI1
aI98
aI1
aI1
aI5
aI1
aI27
aI4
aI2
aI1
aI4
aI89
aI1
aI8
aI69
aa(lp46
I51
aI1
aI685
aI1
aI6
aI66
aI276
aI391
aI1
aI98
aI1
aI1
aI5
aI1
aI27
aI4
aI2
aI1
aI4
aI89
aI1
aI8
aI69
aa(lp47
I51
aI1
aI685
aI1
aI6
aI66
aI276
aI391
aI1
aI98
aI1
aI1
aI5
aI1
aI27
aI4
aI2
aI1
aI4
aI89
aI1
aI8
aI69
aa(lp48
I51
aI1
aI685
aI1
aI6
aI66
aI276
aI391
aI1
aI98
aI1
aI1
aI5
aI1
aI27
aI4
aI2
aI1
aI4
aI89
aI1
aI8
aI69
aa(lp49
I51
aI1
aI685
aI1
aI6
aI66
aI276
aI391
aI1
aI98
aI1
aI1
aI5
aI1
aI27
aI4
aI2
aI1
aI4
aI89
aI1
aI8
aI69
aa(lp50
I51
aI1
aI685
aI1
aI6
aI66
aI276
aI391
aI1
aI98
aI1
aI1
aI5
aI1
aI27
aI4
aI2
aI1
aI4
aI89
aI1
aI8
aI69
aa(lp51
I51
aI1
aI685
aI1
aI6
aI66
aI276
aI391
aI1
aI98
aI1
aI1
aI5
aI1
aI27
aI4
aI2
aI1
aI4
aI89
aI1
aI8
aI69
aa(lp52
I51
aI1
aI685
aI1
aI6
aI66
aI276
aI391
aI1
aI98
aI1
aI1
aI5
aI1
aI27
aI4
aI2
aI1
aI4
aI89
aI1
aI8
aI69
aa(lp53
I51
aI1
aI685
aI1
aI6
aI66
aI276
aI391
aI1
aI98
aI1
aI1
aI5
aI1
aI27
aI4
aI2
aI1
aI4
aI89
aI1
aI8
aI69
aa(lp54
I51
aI1
aI685
aI1
aI6
aI66
aI276
aI391
aI1
aI98
aI1
aI1
aI5
aI1
aI27
aI4
aI2
aI1
aI4
aI89
aI1
aI8
aI69
aa(lp55
I51
aI1
aI685
aI1
aI6
aI66
aI276
aI391
aI1
aI98
aI1
aI1
aI5
aI1
aI27
aI4
aI2
aI1
aI4
aI89
aI1
aI8
aI69
aa(lp56
I51
aI1
aI685
aI1
aI6
aI66
aI276
aI391
aI1
aI98
aI1
aI1
aI5
aI1
aI27
aI4
aI2
aI1
aI4
aI89
aI1
aI8
aI69
aa(lp57
I51
aI1
aI685
aI1
aI6
aI66
aI276
aI391
aI1
aI98
aI1
aI1
aI5
aI1
aI27
aI4
aI2
aI1
aI4
aI89
aI1
aI8
aI69
aa(lp58
I51
aI1
aI685
aI1
aI6
aI66
aI276
aI391
aI1
aI98
aI1
aI1
aI5
aI1
aI27
aI4
aI2
aI1
aI4
aI89
aI1
aI8
aI69
aa(lp59
I51
aI1
aI685
aI1
aI6
aI66
aI276
aI391
aI1
aI98
aI1
aI1
aI5
aI1
aI27
aI4
aI2
aI1
aI4
aI89
aI1
aI8
aI69
aa(lp60
I51
aI1
aI685
aI1
aI6
aI66
aI276
aI391
aI1
aI98
aI1
aI1
aI5
aI1
aI27
aI4
aI2
aI1
aI4
aI89
aI1
aI8
aI69
aa(lp61
I51
aI1
aI685
aI1
aI6
aI66
aI276
aI391
aI1
aI98
aI1
aI1
aI5
aI1
aI27
aI4
aI2
aI1
aI4
aI89
aI1
aI8
aI69
aa(lp62
I51
aI1
aI685
aI1
aI6
aI66
aI276
aI391
aI1
aI98
aI1
aI1
aI5
aI1
aI27
aI4
aI2
aI1
aI4
aI89
aI1
aI8
aI69
aa(lp63
I51
aI1
aI685
aI1
aI6
aI66
aI276
aI391
aI1
aI98
aI1
aI1
aI5
aI1
aI27
aI4
aI2
aI1
aI4
aI89
aI1
aI8
aI69
aa(lp64
I51
aI1
aI685
aI1
aI6
aI66
aI276
aI391
aI1
aI98
aI1
aI1
aI5
aI1
aI27
aI4
aI2
aI1
aI4
aI89
aI1
aI8
aI69
aa(lp65
I51
aI1
aI685
aI1
aI6
aI66
aI276
aI391
aI1
aI98
aI1
aI1
aI5
aI1
aI27
aI4
aI2
aI1
aI4
aI89
aI1
aI8
aI69
aa(lp66
I51
aI1
aI685
aI1
aI6
aI66
aI276
aI391
aI1
aI98
aI1
aI1
aI5
aI1
aI27
aI4
aI2
aI1
aI4
aI89
aI1
aI8
aI69
aa(lp67
I51
aI1
aI685
aI1
aI6
aI66
aI276
aI391
aI1
aI98
aI1
aI1
aI5
aI1
aI27
aI4
aI2
aI1
aI4
aI89
aI1
aI8
aI69
aa(lp68
I51
aI1
aI685
aI1
aI6
aI66
aI276
aI391
aI1
aI98
aI1
aI1
aI5
aI1
aI27
aI4
aI2
aI1
aI4
aI89
aI1
aI8
aI69
aa(lp69
I51
aI1
aI685
aI1
aI6
aI66
aI276
aI391
aI1
aI98
aI1
aI1
aI5
aI1
aI27
aI4
aI2
aI1
aI4
aI89
aI1
aI8
aI69
aa(lp70
I51
aI1
aI685
aI1
aI6
aI66
aI276
aI391
aI1
aI98
aI1
aI1
aI5
aI1
aI27
aI4
aI2
aI1
aI4
aI89
aI1
aI8
aI69
aa(lp71
I51
aI1
aI685
aI1
aI6
aI66
aI276
aI391
aI1
aI98
aI1
aI1
aI5
aI1
aI27
aI4
aI2
aI1
aI4
aI89
aI1
aI8
aI69
aa(lp72
I51
aI1
aI685
aI1
aI6
aI66
aI276
aI391
aI1
aI98
aI1
aI1
aI5
aI1
aI27
aI4
aI2
aI1
aI4
aI89
aI1
aI8
aI69
aa(lp73
I51
aI1
aI685
aI1
aI6
aI66
aI276
aI391
aI1
aI98
aI1
aI1
aI5
aI1
aI27
aI4
aI2
aI1
aI4
aI89
aI1
aI8
aI69
aa(lp74
I51
aI1
aI685
aI1
aI6
aI66
aI276
aI391
aI1
aI98
aI1
aI1
aI5
aI1
aI27
aI4
aI2
aI1
aI4
aI89
aI1
aI8
aI69
aa(lp75
I51
aI1
aI685
aI1
aI6
aI66
aI276
aI391
aI1
aI98
aI1
aI1
aI5
aI1
aI27
aI4
aI2
aI1
aI4
aI89
aI1
aI8
aI69
aa(lp76
I51
aI1
aI685
aI1
aI6
aI66
aI276
aI391
aI1
aI98
aI1
aI1
aI5
aI1
aI27
aI4
aI2
aI1
aI4
aI89
aI1
aI8
aI69
aa(lp77
I51
aI1
aI685
aI1
aI6
aI66
aI276
aI391
aI1
aI98
aI1
aI1
aI5
aI1
aI27
aI4
aI2
aI1
aI4
aI89
aI1
aI8
aI69
aa(lp78
I51
aI1
aI685
aI1
aI6
aI66
aI276
aI391
aI1
aI98
aI1
aI1
aI5
aI1
aI27
aI4
aI2
aI1
aI4
aI89
aI1
aI8
aI69
aa(lp79
I51
aI1
aI685
aI1
aI6
aI66
aI276
aI391
aI1
aI98
aI1
aI1
aI5
aI1
aI27
aI4
aI2
aI1
aI4
aI89
aI1
aI8
aI69
aa(lp80
I51
aI1
aI685
aI1
aI6
aI66
aI276
aI391
aI1
aI98
aI1
aI1
aI5
aI1
aI27
aI4
aI2
aI1
aI4
aI89
aI1
aI8
aI69
aa(lp81
I51
aI1
aI685
aI1
aI6
aI66
aI276
aI391
aI1
aI98
aI1
aI1
aI5
aI1
aI27
aI4
aI2
aI1
aI4
aI89
aI1
aI8
aI69
aa(lp82
I51
aI1
aI685
aI1
aI6
aI66
aI276
aI391
aI1
aI98
aI1
aI1
aI5
aI1
aI27
aI4
aI2
aI1
aI4
aI89
aI1
aI8
aI69
aa(lp83
I51
aI1
aI685
aI1
aI6
aI66
aI276
aI391
aI1
aI98
aI1
aI1
aI5
aI1
aI27
aI4
aI2
aI1
aI4
aI89
aI1
aI8
aI69
aa(lp84
I51
aI1
aI685
aI1
aI6
aI66
aI276
aI391
aI1
aI98
aI1
aI1
aI5
aI1
aI27
aI4
aI2
aI1
aI4
aI89
aI1
aI8
aI69
aa(lp85
I51
aI1
aI685
aI1
aI6
aI66
aI276
aI391
aI1
aI98
aI1
aI1
aI5
aI1
aI27
aI4
aI2
aI1
aI4
aI89
aI1
aI8
aI69
aa(lp86
I51
aI1
aI685
aI1
aI6
aI66
aI276
aI391
aI1
aI98
aI1
aI1
aI5
aI1
aI27
aI4
aI2
aI1
aI4
aI89
aI1
aI8
aI69
aa(lp87
I51
aI1
aI685
aI1
aI6
aI66
aI276
aI391
aI1
aI98
aI1
aI1
aI5
aI1
aI27
aI4
aI2
aI1
aI4
aI89
aI1
aI8
aI69
aa(lp88
I51
aI1
aI685
aI1
aI6
aI66
aI276
aI391
aI1
aI98
aI1
aI1
aI5
aI1
aI27
aI4
aI2
aI1
aI4
aI89
aI1
aI8
aI69
aa(lp89
I51
aI1
aI685
aI1
aI6
aI66
aI276
aI391
aI1
aI98
aI1
aI1
aI5
aI1
aI27
aI4
aI2
aI1
aI4
aI89
aI1
aI8
aI69
aa(lp90
I51
aI1
aI685
aI1
aI6
aI66
aI276
aI391
aI1
aI98
aI1
aI1
aI5
aI1
aI27
aI4
aI2
aI1
aI4
aI89
aI1
aI8
aI69
aa(lp91
I51
aI1
aI685
aI1
aI6
aI66
aI276
aI391
aI1
aI98
aI1
aI1
aI5
aI1
aI27
aI4
aI2
aI1
aI4
aI89
aI1
aI8
aI69
aa(lp92
I51
aI1
aI685
aI1
aI6
aI66
aI276
aI391
aI1
aI98
aI1
aI1
aI5
aI1
aI27
aI4
aI2
aI1
aI4
aI89
aI1
aI8
aI69
aa(lp93
I51
aI1
aI685
aI1
aI6
aI66
aI276
aI391
aI1
aI98
aI1
aI1
aI5
aI1
aI27
aI4
aI2
aI1
aI4
aI89
aI1
aI8
aI69
aa(lp94
I51
aI1
aI685
aI1
aI6
aI66
aI276
aI391
aI1
aI98
aI1
aI1
aI5
aI1
aI27
aI4
aI2
aI1
aI4
aI89
aI1
aI8
aI69
aa(lp95
I51
aI1
aI685
aI1
aI6
aI66
aI276
aI391
aI1
aI98
aI1
aI1
aI5
aI1
aI27
aI4
aI2
aI1
aI4
aI89
aI1
aI8
aI69
aa(lp96
I51
aI1
aI685
aI1
aI6
aI66
aI276
aI391
aI1
aI98
aI1
aI1
aI5
aI1
aI27
aI4
aI2
aI1
aI4
aI89
aI1
aI8
aI69
aa(lp97
I51
aI1
aI685
aI1
aI6
aI66
aI276
aI391
aI1
aI98
aI1
aI1
aI5
aI1
aI27
aI4
aI2
aI1
aI4
aI89
aI1
aI8
aI69
aa(lp98
I51
aI1
aI685
aI1
aI6
aI66
aI276
aI391
aI1
aI98
aI1
aI1
aI5
aI1
aI27
aI4
aI2
aI1
aI4
aI89
aI1
aI8
aI69
aa(lp99
I51
aI1
aI685
aI1
aI6
aI66
aI276
aI391
aI1
aI98
aI1
aI1
aI5
aI1
aI27
aI4
aI2
aI1
aI4
aI89
aI1
aI8
aI69
aa(lp100
I51
aI1
aI685
aI1
aI6
aI66
aI276
aI391
aI1
aI98
aI1
aI1
aI5
aI1
aI27
aI4
aI2
aI1
aI4
aI89
aI1
aI8
aI69
aa(lp101
I51
aI1
aI685
aI1
aI6
aI66
aI276
aI391
aI1
aI98
aI1
aI1
aI5
aI1
aI27
aI4
aI2
aI1
aI4
aI89
aI1
aI8
aI69
aa(lp102
I51
aI1
aI685
aI1
aI6
aI66
aI276
aI391
aI1
aI98
aI1
aI1
aI5
aI1
aI27
aI4
aI2
aI1
aI4
aI89
aI1
aI8
aI69
aa(lp103
I51
aI1
aI685
aI1
aI6
aI66
aI276
aI391
aI1
aI98
aI1
aI1
aI5
aI1
aI27
aI4
aI2
aI1
aI4
aI89
aI1
aI8
aI69
aa(lp104
I51
aI1
aI685
aI1
aI6
aI66
aI276
aI391
aI1
aI98
aI1
aI1
aI5
aI1
aI27
aI4
aI2
aI1
aI4
aI89
aI1
aI8
aI69
aa(lp105
I51
aI1
aI685
aI1
aI6
aI66
aI276
aI391
aI1
aI98
aI1
aI1
aI5
aI1
aI27
aI4
aI2
aI1
aI4
aI89
aI1
aI8
aI69
aa(lp106
I51
aI1
aI685
aI1
aI6
aI66
aI276
aI391
aI1
aI98
aI1
aI1
aI5
aI1
aI27
aI4
aI2
aI1
aI4
aI89
aI1
aI8
aI69
aa(lp107
I51
aI1
aI685
aI1
aI6
aI66
aI276
aI391
aI1
aI98
aI1
aI1
aI5
aI1
aI27
aI4
aI2
aI1
aI4
aI89
aI1
aI8
aI69
aa(lp108
I51
aI1
aI685
aI1
aI6
aI66
aI276
aI391
aI1
aI98
aI1
aI1
aI5
aI1
aI27
aI4
aI2
aI1
aI4
aI89
aI1
aI8
aI69
aa(lp109
I51
aI1
aI685
aI1
aI6
aI66
aI276
aI391
aI1
aI98
aI1
aI1
aI5
aI1
aI27
aI4
aI2
aI1
aI4
aI89
aI1
aI8
aI69
aa(lp110
I51
aI1
aI685
aI1
aI6
aI66
aI276
aI391
aI1
aI98
aI1
aI1
aI5
aI1
aI27
aI4
aI2
aI1
aI4
aI89
aI1
aI8
aI69
aa(lp111
I51
aI1
aI685
aI1
aI6
aI66
aI276
aI391
aI1
aI98
aI1
aI1
aI5
aI1
aI27
aI4
aI2
aI1
aI4
aI89
aI1
aI8
aI69
aa(lp112
I51
aI1
aI685
aI1
aI6
aI66
aI276
aI391
aI1
aI98
aI1
aI1
aI5
aI1
aI27
aI4
aI2
aI1
aI4
aI89
aI1
aI8
aI69
aa(lp113
I51
aI1
aI685
aI1
aI6
aI66
aI276
aI391
aI1
aI98
aI1
aI1
aI5
aI1
aI27
aI4
aI2
aI1
aI4
aI89
aI1
aI8
aI69
aa(lp114
I51
aI1
aI685
aI1
aI6
aI66
aI276
aI391
aI1
aI98
aI1
aI1
aI5
aI1
aI27
aI4
aI2
aI1
aI4
aI89
aI1
aI8
aI69
aa(lp115
I51
aI1
aI685
aI1
aI6
aI66
aI276
aI391
aI1
aI98
aI1
aI1
aI5
aI1
aI27
aI4
aI2
aI1
aI4
aI89
aI1
aI8
aI69
aa(lp116
I51
aI1
aI685
aI1
aI6
aI66
aI276
aI391
aI1
aI98
aI1
aI1
aI5
aI1
aI27
aI4
aI2
aI1
aI4
aI89
aI1
aI8
aI69
aa(lp117
I51
aI1
aI685
aI1
aI6
aI66
aI276
aI391
aI1
aI98
aI1
aI1
aI5
aI1
aI27
aI4
aI2
aI1
aI4
aI89
aI1
aI8
aI69
aa(lp118
I51
aI1
aI685
aI1
aI6
aI66
aI276
aI391
aI1
aI98
aI1
aI1
aI5
aI1
aI27
aI4
aI2
aI1
aI4
aI89
aI1
aI8
aI69
aa(lp119
I51
aI1
aI685
aI1
aI6
aI66
aI276
aI391
aI1
aI98
aI1
aI1
aI5
aI1
aI27
aI4
aI2
aI1
aI4
aI89
aI1
aI8
aI69
aa(lp120
I51
aI1
aI685
aI1
aI6
aI66
aI276
aI391
aI1
aI98
aI1
aI1
aI5
aI1
aI27
aI4
aI2
aI1
aI4
aI89
aI1
aI8
aI69
aa(lp121
I51
aI1
aI685
aI1
aI6
aI66
aI276
aI391
aI1
aI98
aI1
aI1
aI5
aI1
aI27
aI4
aI2
aI1
aI4
aI89
aI1
aI8
aI69
aa(lp122
I51
aI1
aI685
aI1
aI6
aI66
aI276
aI391
aI1
aI98
aI1
aI1
aI5
aI1
aI27
aI4
aI2
aI1
aI4
aI89
aI1
aI8
aI69
aa(lp123
I51
aI1
aI685
aI1
aI6
aI66
aI276
aI391
aI1
aI98
aI1
aI1
aI5
aI1
aI27
aI4
aI2
aI1
aI4
aI89
aI1
aI8
aI69
aa(lp124
I51
aI1
aI685
aI1
aI6
aI66
aI276
aI391
aI1
aI98
aI1
aI1
aI5
aI1
aI27
aI4
aI2
aI1
aI4
aI89
aI1
aI8
aI69
aa(lp125
I51
aI1
aI685
aI1
aI6
aI66
aI276
aI391
aI1
aI98
aI1
aI1
aI5
aI1
aI27
aI4
aI2
aI1
aI4
aI89
aI1
aI8
aI69
aa(lp126
I51
aI1
aI685
aI1
aI6
aI66
aI276
aI391
aI1
aI98
aI1
aI1
aI5
aI1
aI27
aI4
aI2
aI1
aI4
aI89
aI1
aI8
aI69
aa(lp127
I51
aI1
aI685
aI1
aI6
aI66
aI276
aI391
aI1
aI98
aI1
aI1
aI5
aI1
aI27
aI4
aI2
aI1
aI4
aI89
aI1
aI8
aI69
aa(lp128
I51
aI1
aI685
aI1
aI6
aI66
aI276
aI391
aI1
aI98
aI1
aI1
aI5
aI1
aI27
aI4
aI2
aI1
aI4
aI89
aI1
aI8
aI69
aa(lp129
I51
aI1
aI685
aI1
aI6
aI66
aI276
aI391
aI1
aI98
aI1
aI1
aI5
aI1
aI27
aI4
aI2
aI1
aI4
aI89
aI1
aI8
aI69
aa(lp130
I51
aI1
aI685
aI1
aI6
aI66
aI276
aI391
aI1
aI98
aI1
aI1
aI5
aI1
aI27
aI4
aI2
aI1
aI4
aI89
aI1
aI8
aI69
aa(lp131
I51
aI1
aI685
aI1
aI6
aI66
aI276
aI391
aI1
aI98
aI1
aI1
aI5
aI1
aI27
aI4
aI2
aI1
aI4
aI89
aI1
aI8
aI69
aa(lp132
I51
aI1
aI685
aI1
aI6
aI66
aI276
aI391
aI1
aI98
aI1
aI1
aI5
aI1
aI27
aI4
aI2
aI1
aI4
aI89
aI1
aI8
aI69
aa(lp133
I51
aI1
aI685
aI1
aI6
aI66
aI276
aI391
aI1
aI98
aI1
aI1
aI5
aI1
aI27
aI4
aI2
aI1
aI4
aI89
aI1
aI8
aI69
aa(lp134
I51
aI1
aI685
aI1
aI6
aI66
aI276
aI391
aI1
aI98
aI1
aI1
aI5
aI1
aI27
aI4
aI2
aI1
aI4
aI89
aI1
aI8
aI69
aa(lp135
I51
aI1
aI685
aI1
aI6
aI66
aI276
aI391
aI1
aI98
aI1
aI1
aI5
aI1
aI27
aI4
aI2
aI1
aI4
aI89
aI1
aI8
aI69
aa(lp136
I51
aI1
aI685
aI1
aI6
aI66
aI276
aI391
aI1
aI98
aI1
aI1
aI5
aI1
aI27
aI4
aI2
aI1
aI4
aI89
aI1
aI8
aI69
aa(lp137
I51
aI1
aI685
aI1
aI6
aI66
aI276
aI391
aI1
aI98
aI1
aI1
aI5
aI1
aI27
aI4
aI2
aI1
aI4
aI89
aI1
aI8
aI69
aa(lp138
I51
aI1
aI685
aI1
aI6
aI66
aI276
aI391
aI1
aI98
aI1
aI1
aI5
aI1
aI27
aI4
aI2
aI1
aI4
aI89
aI1
aI8
aI69
aa(lp139
I51
aI1
aI685
aI1
aI6
aI66
aI276
aI391
aI1
aI98
aI1
aI1
aI5
aI1
aI27
aI4
aI2
aI1
aI4
aI89
aI1
aI8
aI69
aa(lp140
I51
aI1
aI685
aI1
aI6
aI66
aI276
aI391
aI1
aI98
aI1
aI1
aI5
aI1
aI27
aI4
aI2
aI1
aI4
aI89
aI1
aI8
aI69
aa(lp141
I51
aI1
aI685
aI1
aI6
aI66
aI276
aI391
aI1
aI98
aI1
aI1
aI5
aI1
aI27
aI4
aI2
aI1
aI4
aI89
aI1
aI8
aI69
aa(lp142
I51
aI1
aI685
aI1
aI6
aI66
aI276
aI391
aI1
aI98
aI1
aI1
aI5
aI1
aI27
aI4
aI2
aI1
aI4
aI89
aI1
aI8
aI69
aa(lp143
I51
aI1
aI685
aI1
aI6
aI66
aI276
aI391
aI1
aI98
aI1
aI1
aI5
aI1
aI27
aI4
aI2
aI1
aI4
aI89
aI1
aI8
aI69
aa(lp144
I51
aI1
aI685
aI1
aI6
aI66
aI276
aI391
aI1
aI98
aI1
aI1
aI5
aI1
aI27
aI4
aI2
aI1
aI4
aI89
aI1
aI8
aI69
aa(lp145
I51
aI1
aI685
aI1
aI6
aI66
aI276
aI391
aI1
aI98
aI1
aI1
aI5
aI1
aI27
aI4
aI2
aI1
aI4
aI89
aI1
aI8
aI69
aa(lp146
I51
aI1
aI685
aI1
aI6
aI66
aI276
aI391
aI1
aI98
aI1
aI1
aI5
aI1
aI27
aI4
aI2
aI1
aI4
aI89
aI1
aI8
aI69
aa(lp147
I51
aI1
aI685
aI1
aI6
aI66
aI276
aI391
aI1
aI98
aI1
aI1
aI5
aI1
aI27
aI4
aI2
aI1
aI4
aI89
aI1
aI8
aI69
aa(lp148
I51
aI1
aI685
aI1
aI6
aI66
aI276
aI391
aI1
aI98
aI1
aI1
aI5
aI1
aI27
aI4
aI2
aI1
aI4
aI89
aI1
aI8
aI69
aa(lp149
I51
aI1
aI685
aI1
aI6
aI66
aI276
aI391
aI1
aI98
aI1
aI1
aI5
aI1
aI27
aI4
aI2
aI1
aI4
aI89
aI1
aI8
aI69
aa(lp150
I51
aI1
aI685
aI1
aI6
aI66
aI276
aI391
aI1
aI98
aI1
aI1
aI5
aI1
aI27
aI4
aI2
aI1
aI4
aI89
aI1
aI8
aI69
aa(lp151
I51
aI1
aI685
aI1
aI6
aI66
aI276
aI391
aI1
aI98
aI1
aI1
aI5
aI1
aI27
aI4
aI2
aI1
aI4
aI89
aI1
aI8
aI69
aa(lp152
I51
aI1
aI685
aI1
aI6
aI66
aI276
aI391
aI1
aI98
aI1
aI1
aI5
aI1
aI27
aI4
aI2
aI1
aI4
aI89
aI1
aI8
aI69
aa(lp153
I51
aI1
aI685
aI1
aI6
aI66
aI276
aI391
aI1
aI98
aI1
aI1
aI5
aI1
aI27
aI4
aI2
aI1
aI4
aI89
aI1
aI8
aI69
aa(lp154
I51
aI1
aI685
aI1
aI6
aI66
aI276
aI391
aI1
aI98
aI1
aI1
aI5
aI1
aI27
aI4
aI2
aI1
aI4
aI89
aI1
aI8
aI69
aa(lp155
I51
aI1
aI685
aI1
aI6
aI66
aI276
aI391
aI1
aI98
aI1
aI1
aI5
aI1
aI27
aI4
aI2
aI1
aI4
aI89
aI1
aI8
aI69
aa(lp156
I51
aI1
aI685
aI1
aI6
aI66
aI276
aI391
aI1
aI98
aI1
aI1
aI5
aI1
aI27
aI4
aI2
aI1
aI4
aI89
aI1
aI8
aI69
aa(lp157
I51
aI1
aI685
aI1
aI6
aI66
aI276
aI391
aI1
aI98
aI1
aI1
aI5
aI1
aI27
aI4
aI2
aI1
aI4
aI89
aI1
aI8
aI69
aa(lp158
I51
aI1
aI685
aI1
aI6
aI66
aI276
aI391
aI1
aI98
aI1
aI1
aI5
aI1
aI27
aI4
aI2
aI1
aI4
aI89
aI1
aI8
aI69
aa(lp159
I51
aI1
aI685
aI1
aI6
aI66
aI276
aI391
aI1
aI98
aI1
aI1
aI5
aI1
aI27
aI4
aI2
aI1
aI4
aI89
aI1
aI8
aI69
aa(lp160
I51
aI1
aI685
aI1
aI6
aI66
aI276
aI391
aI1
aI98
aI1
aI1
aI5
aI1
aI27
aI4
aI2
aI1
aI4
aI89
aI1
aI8
aI69
aa(lp161
I51
aI1
aI685
aI1
aI6
aI66
aI276
aI391
aI1
aI98
aI1
aI1
aI5
aI1
aI27
aI4
aI2
aI1
aI4
aI89
aI1
aI8
aI69
aa(lp162
I51
aI1
aI685
aI1
aI6
aI66
aI276
aI391
aI1
aI98
aI1
aI1
aI5
aI1
aI27
aI4
aI2
aI1
aI4
aI89
aI1
aI8
aI69
aa(lp163
I51
aI1
aI685
aI1
aI6
aI66
aI276
aI391
aI1
aI98
aI1
aI1
aI5
aI1
aI27
aI4
aI2
aI1
aI4
aI89
aI1
aI8
aI69
aa(lp164
I51
aI1
aI685
aI1
aI6
aI66
aI276
aI391
aI1
aI98
aI1
aI1
aI5
aI1
aI27
aI4
aI2
aI1
aI4
aI89
aI1
aI8
aI69
aa(lp165
I51
aI1
aI685
aI1
aI6
aI66
aI276
aI391
aI1
aI98
aI1
aI1
aI5
aI1
aI27
aI4
aI2
aI1
aI4
aI89
aI1
aI8
aI69
aa(lp166
I51
aI1
aI685
aI1
aI6
aI66
aI276
aI391
aI1
aI98
aI1
aI1
aI5
aI1
aI27
aI4
aI2
aI1
aI4
aI89
aI1
aI8
aI69
aa(lp167
I51
aI1
aI685
aI1
aI6
aI66
aI276
aI391
aI1
aI98
aI1
aI1
aI5
aI1
aI27
aI4
aI2
aI1
aI4
aI89
aI1
aI8
aI69
aa(lp168
I51
aI1
aI685
aI1
aI6
aI66
aI276
aI391
aI1
aI98
aI1
aI1
aI5
aI1
aI27
aI4
aI2
aI1
aI4
aI89
aI1
aI8
aI69
aa(lp169
I51
aI1
aI685
aI1
aI6
aI66
aI276
aI391
aI1
aI98
aI1
aI1
aI5
aI1
aI27
aI4
aI2
aI1
aI4
aI89
aI1
aI8
aI69
aa(lp170
I51
aI1
aI685
aI1
aI6
aI66
aI276
aI391
aI1
aI98
aI1
aI1
aI5
aI1
aI27
aI4
aI2
aI1
aI4
aI89
aI1
aI8
aI69
aa(lp171
I51
aI1
aI685
aI1
aI6
aI66
aI276
aI391
aI1
aI98
aI1
aI1
aI5
aI1
aI27
aI4
aI2
aI1
aI4
aI89
aI1
aI8
aI69
aa(lp172
I51
aI1
aI685
aI1
aI6
aI66
aI276
aI391
aI1
aI98
aI1
aI1
aI5
aI1
aI27
aI4
aI2
aI1
aI4
aI89
aI1
aI8
aI69
aa(lp173
I51
aI1
aI685
aI1
aI6
aI66
aI276
aI391
aI1
aI98
aI1
aI1
aI5
aI1
aI27
aI4
aI2
aI1
aI4
aI89
aI1
aI8
aI69
aa(lp174
I51
aI1
aI685
aI1
aI6
aI66
aI276
aI391
aI1
aI98
aI1
aI1
aI5
aI1
aI27
aI4
aI2
aI1
aI4
aI89
aI1
aI8
aI69
aa(lp175
I51
aI1
aI685
aI1
aI6
aI66
aI276
aI391
aI1
aI98
aI1
aI1
aI5
aI1
aI27
aI4
aI2
aI1
aI4
aI89
aI1
aI8
aI69
aa(lp176
I51
aI1
aI685
aI1
aI6
aI66
aI276
aI391
aI1
aI98
aI1
aI1
aI5
aI1
aI27
aI4
aI2
aI1
aI4
aI89
aI1
aI8
aI69
aa(lp177
I51
aI1
aI685
aI1
aI6
aI66
aI276
aI391
aI1
aI98
aI1
aI1
aI5
aI1
aI27
aI4
aI2
aI1
aI4
aI89
aI1
aI8
aI69
aa(lp178
I51
aI1
aI685
aI1
aI6
aI66
aI276
aI391
aI1
aI98
aI1
aI1
aI5
aI1
aI27
aI4
aI2
aI1
aI4
aI89
aI1
aI8
aI69
aa(lp179
I51
aI1
aI685
aI1
aI6
aI66
aI276
aI391
aI1
aI98
aI1
aI1
aI5
aI1
aI27
aI4
aI2
aI1
aI4
aI89
aI1
aI8
aI69
aa(lp180
I51
aI1
aI685
aI1
aI6
aI66
aI276
aI391
aI1
aI98
aI1
aI1
aI5
aI1
aI27
aI4
aI2
aI1
aI4
aI89
aI1
aI8
aI69
aa(lp181
I51
aI1
aI685
aI1
aI6
aI66
aI276
aI391
aI1
aI98
aI1
aI1
aI5
aI1
aI27
aI4
aI2
aI1
aI4
aI89
aI1
aI8
aI69
aa(lp182
I51
aI1
aI685
aI1
aI6
aI66
aI276
aI391
aI1
aI98
aI1
aI1
aI5
aI1
aI27
aI4
aI2
aI1
aI4
aI89
aI1
aI8
aI69
aa(lp183
I51
aI1
aI685
aI1
aI6
aI66
aI276
aI391
aI1
aI98
aI1
aI1
aI5
aI1
aI27
aI4
aI2
aI1
aI4
aI89
aI1
aI8
aI69
aa(lp184
I51
aI1
aI685
aI1
aI6
aI66
aI276
aI391
aI1
aI98
aI1
aI1
aI5
aI1
aI27
aI4
aI2
aI1
aI4
aI89
aI1
aI8
aI69
aa(lp185
I51
aI1
aI685
aI1
aI6
aI66
aI276
aI391
aI1
aI98
aI1
aI1
aI5
aI1
aI27
aI4
aI2
aI1
aI4
aI89
aI1
aI8
aI69
aa(lp186
I51
aI1
aI685
aI1
aI6
aI66
aI276
aI391
aI1
aI98
aI1
aI1
aI5
aI1
aI27
aI4
aI2
aI1
aI4
aI89
aI1
aI8
aI69
aa(lp187
I51
aI1
aI685
aI1
aI6
aI66
aI276
aI391
aI1
aI98
aI1
aI1
aI5
aI1
aI27
aI4
aI2
aI1
aI4
aI89
aI1
aI8
aI69
aa(lp188
I51
aI1
aI685
aI1
aI6
aI66
aI276
aI391
aI1
aI98
aI1
aI1
aI5
aI1
aI27
aI4
aI2
aI1
aI4
aI89
aI1
aI8
aI69
aa(lp189
I51
aI1
aI685
aI1
aI6
aI66
aI276
aI391
aI1
aI98
aI1
aI1
aI5
aI1
aI27
aI4
aI2
aI1
aI4
aI89
aI1
aI8
aI69
aa(lp190
I51
aI1
aI685
aI1
aI6
aI66
aI276
aI391
aI1
aI98
aI1
aI1
aI5
aI1
aI27
aI4
aI2
aI1
aI4
aI89
aI1
aI8
aI69
aa(lp191
I51
aI1
aI685
aI1
aI6
aI66
aI276
aI391
aI1
aI98
aI1
aI1
aI5
aI1
aI27
aI4
aI2
aI1
aI4
aI89
aI1
aI8
aI69
aa(lp192
I51
aI1
aI685
aI1
aI6
aI66
aI276
aI391
aI1
aI98
aI1
aI1
aI5
aI1
aI27
aI4
aI2
aI1
aI4
aI89
aI1
aI8
aI69
aa(lp193
I51
aI1
aI685
aI1
aI6
aI66
aI276
aI391
aI1
aI98
aI1
aI1
aI5
aI1
aI27
aI4
aI2
aI1
aI4
aI89
aI1
aI8
aI69
aa(lp194
I51
aI1
aI685
aI1
aI6
aI66
aI276
aI391
aI1
aI98
aI1
aI1
aI5
aI1
aI27
aI4
aI2
aI1
aI4
aI89
aI1
aI8
aI69
aa(lp195
I51
aI1
aI685
aI1
aI6
aI66
aI276
aI391
aI1
aI98
aI1
aI1
aI5
aI1
aI27
aI4
aI2
aI1
aI4
aI89
aI1
aI8
aI69
aa(lp196
I51
aI1
aI685
aI1
aI6
aI66
aI276
aI391
aI1
aI98
aI1
aI1
aI5
aI1
aI27
aI4
aI2
aI1
aI4
aI89
aI1
aI8
aI69
aa(lp197
I51
aI1
aI685
aI1
aI6
aI66
aI276
aI391
aI1
aI98
aI1
aI1
aI5
aI1
aI27
aI4
aI2
aI1
aI4
aI89
aI1
aI8
aI69
aa(lp198
I51
aI1
aI685
aI1
aI6
aI66
aI276
aI391
aI1
aI98
aI1
aI1
aI5
aI1
aI27
aI4
aI2
aI1
aI4
aI89
aI1
aI8
aI69
aa(lp199
I51
aI1
aI685
aI1
aI6
aI66
aI276
aI391
aI1
aI98
aI1
aI1
aI5
aI1
aI27
aI4
aI2
aI1
aI4
aI89
aI1
aI8
aI69
aa(lp200
I51
aI1
aI685
aI1
aI6
aI66
aI276
aI391
aI1
aI98
aI1
aI1
aI5
aI1
aI27
aI4
aI2
aI1
aI4
aI89
aI1
aI8
aI69
aa(lp201
I51
aI1
aI685
aI1
aI6
aI66
aI276
aI391
aI1
aI98
aI1
aI1
aI5
aI1
aI27
aI4
aI2
aI1
aI4
aI89
aI1
aI8
aI69
aa(lp202
I51
aI1
aI685
aI1
aI6
aI66
aI276
aI391
aI1
aI98
aI1
aI1
aI5
aI1
aI27
aI4
aI2
aI1
aI4
aI89
aI1
aI8
aI69
aa(lp203
I51
aI1
aI685
aI1
aI6
aI66
aI276
aI391
aI1
aI98
aI1
aI1
aI5
aI1
aI27
aI4
aI2
aI1
aI4
aI89
aI1
aI8
aI69
aa(lp204
I51
aI1
aI685
aI1
aI6
aI66
aI276
aI391
aI1
aI98
aI1
aI1
aI5
aI1
aI27
aI4
aI2
aI1
aI4
aI89
aI1
aI8
aI69
aa(lp205
I51
aI1
aI685
aI1
aI6
aI66
aI276
aI391
aI1
aI98
aI1
aI1
aI5
aI1
aI27
aI4
aI2
aI1
aI4
aI89
aI1
aI8
aI69
aa(lp206
I51
aI1
aI685
aI1
aI6
aI66
aI276
aI391
aI1
aI98
aI1
aI1
aI5
aI1
aI27
aI4
aI2
aI1
aI4
aI89
aI1
aI8
aI69
aa(lp207
I51
aI1
aI685
aI1
aI6
aI66
aI276
aI391
aI1
aI98
aI1
aI1
aI5
aI1
aI27
aI4
aI2
aI1
aI4
aI89
aI1
aI8
aI69
aa(lp208
I51
aI1
aI685
aI1
aI6
aI66
aI276
aI391
aI1
aI98
aI1
aI1
aI5
aI1
aI27
aI4
aI2
aI1
aI4
aI89
aI1
aI8
aI69
aa(lp209
I51
aI1
aI685
aI1
aI6
aI66
aI276
aI391
aI1
aI98
aI1
aI1
aI5
aI1
aI27
aI4
aI2
aI1
aI4
aI89
aI1
aI8
aI69
aa(lp210
I51
aI1
aI685
aI1
aI6
aI66
aI276
aI391
aI1
aI98
aI1
aI1
aI5
aI1
aI27
aI4
aI2
aI1
aI4
aI89
aI1
aI8
aI69
aa(lp211
I51
aI1
aI685
aI1
aI6
aI66
aI276
aI391
aI1
aI98
aI1
aI1
aI5
aI1
aI27
aI4
aI2
aI1
aI4
aI89
aI1
aI8
aI69
aa(lp212
I51
aI1
aI685
aI1
aI6
aI66
aI276
aI391
aI1
aI98
aI1
aI1
aI5
aI1
aI27
aI4
aI2
aI1
aI4
aI89
aI1
aI8
aI69
aa(lp213
I51
aI1
aI685
aI1
aI6
aI66
aI276
aI391
aI1
aI98
aI1
aI1
aI5
aI1
aI27
aI4
aI2
aI1
aI4
aI89
aI1
aI8
aI69
aa(lp214
I51
aI1
aI685
aI1
aI6
aI66
aI276
aI391
aI1
aI98
aI1
aI1
aI5
aI1
aI27
aI4
aI2
aI1
aI4
aI89
aI1
aI8
aI69
aa(lp215
I51
aI1
aI685
aI1
aI6
aI66
aI276
aI391
aI1
aI98
aI1
aI1
aI5
aI1
aI27
aI4
aI2
aI1
aI4
aI89
aI1
aI8
aI69
aa(lp216
I51
aI1
aI685
aI1
aI6
aI66
aI276
aI391
aI1
aI98
aI1
aI1
aI5
aI1
aI27
aI4
aI2
aI1
aI4
aI89
aI1
aI8
aI69
aa(lp217
I51
aI1
aI685
aI1
aI6
aI66
aI276
aI391
aI1
aI98
aI1
aI1
aI5
aI1
aI27
aI4
aI2
aI1
aI4
aI89
aI1
aI8
aI69
aa(lp218
I51
aI1
aI685
aI1
aI6
aI66
aI276
aI391
aI1
aI98
aI1
aI1
aI5
aI1
aI27
aI4
aI2
aI1
aI4
aI89
aI1
aI8
aI69
aa(lp219
I51
aI1
aI685
aI1
aI6
aI66
aI276
aI391
aI1
aI98
aI1
aI1
aI5
aI1
aI27
aI4
aI2
aI1
aI4
aI89
aI1
aI8
aI69
aa(lp220
I51
aI1
aI685
aI1
aI6
aI66
aI276
aI391
aI1
aI98
aI1
aI1
aI5
aI1
aI27
aI4
aI2
aI1
aI4
aI89
aI1
aI8
aI69
aa(lp221
I51
aI1
aI685
aI1
aI6
aI66
aI276
aI391
aI1
aI98
aI1
aI1
aI5
aI1
aI27
aI4
aI2
aI1
aI4
aI89
aI1
aI8
aI69
aa(lp222
I51
aI1
aI685
aI1
aI6
aI66
aI276
aI391
aI1
aI98
aI1
aI1
aI5
aI1
aI27
aI4
aI2
aI1
aI4
aI89
aI1
aI8
aI69
aa(lp223
I51
aI1
aI685
aI1
aI6
aI66
aI276
aI391
aI1
aI98
aI1
aI1
aI5
aI1
aI27
aI4
aI2
aI1
aI4
aI89
aI1
aI8
aI69
aa(lp224
I51
aI1
aI685
aI1
aI6
aI66
aI276
aI391
aI1
aI98
aI1
aI1
aI5
aI1
aI27
aI4
aI2
aI1
aI4
aI89
aI1
aI8
aI69
aa(lp225
I51
aI1
aI685
aI1
aI6
aI66
aI276
aI391
aI1
aI98
aI1
aI1
aI5
aI1
aI27
aI4
aI2
aI1
aI4
aI89
aI1
aI8
aI69
aa(lp226
I51
aI1
aI685
aI1
aI6
aI66
aI276
aI391
aI1
aI98
aI1
aI1
aI5
aI1
aI27
aI4
aI2
aI1
aI4
aI89
aI1
aI8
aI69
aa(lp227
I51
aI1
aI685
aI1
aI6
aI66
aI276
aI391
aI1
aI98
aI1
aI1
aI5
aI1
aI27
aI4
aI2
aI1
aI4
aI89
aI1
aI8
aI69
aa(lp228
I51
aI1
aI685
aI1
aI6
aI66
aI276
aI391
aI1
aI98
aI1
aI1
aI5
aI1
aI27
aI4
aI2
aI1
aI4
aI89
aI1
aI8
aI69
aa(lp229
I51
aI1
aI685
aI1
aI6
aI66
aI276
aI391
aI1
aI98
aI1
aI1
aI5
aI1
aI27
aI4
aI2
aI1
aI4
aI89
aI1
aI8
aI69
aa(lp230
I51
aI1
aI685
aI1
aI6
aI66
aI276
aI391
aI1
aI98
aI1
aI1
aI5
aI1
aI27
aI4
aI2
aI1
aI4
aI89
aI1
aI8
aI69
aa(lp231
I51
aI1
aI685
aI1
aI6
aI66
aI276
aI391
aI1
aI98
aI1
aI1
aI5
aI1
aI27
aI4
aI2
aI1
aI4
aI89
aI1
aI8
aI69
aa(lp232
I51
aI1
aI685
aI1
aI6
aI66
aI276
aI391
aI1
aI98
aI1
aI1
aI5
aI1
aI27
aI4
aI2
aI1
aI4
aI89
aI1
aI8
aI69
aa(lp233
I51
aI1
aI685
aI1
aI6
aI66
aI276
aI391
aI1
aI98
aI1
aI1
aI5
aI1
aI27
aI4
aI2
aI1
aI4
aI89
aI1
aI8
aI69
aa(lp234
I51
aI1
aI685
aI1
aI6
aI66
aI276
aI391
aI1
aI98
aI1
aI1
aI5
aI1
aI27
aI4
aI2
aI1
aI4
aI89
aI1
aI8
aI69
aa(lp235
I51
aI1
aI685
aI1
aI6
aI66
aI276
aI391
aI1
aI98
aI1
aI1
aI5
aI1
aI27
aI4
aI2
aI1
aI4
aI89
aI1
aI8
aI69
aa(lp236
I51
aI1
aI685
aI1
aI6
aI66
aI276
aI391
aI1
aI98
aI1
aI1
aI5
aI1
aI27
aI4
aI2
aI1
aI4
aI89
aI1
aI8
aI69
aa(lp237
I51
aI1
aI685
aI1
aI6
aI66
aI276
aI391
aI1
aI98
aI1
aI1
aI5
aI1
aI27
aI4
aI2
aI1
aI4
aI89
aI1
aI8
aI69
aa(lp238
I51
aI1
aI685
aI1
aI6
aI66
aI276
aI391
aI1
aI98
aI1
aI1
aI5
aI1
aI27
aI4
aI2
aI1
aI4
aI89
aI1
aI8
aI69
aa(lp239
I51
aI1
aI685
aI1
aI6
aI66
aI276
aI391
aI1
aI98
aI1
aI1
aI5
aI1
aI27
aI4
aI2
aI1
aI4
aI89
aI1
aI8
aI69
aa(lp240
I1
aI0
aI0
aI0
aI0
aI0
aI0
aI0
aI-1
aI1
aI0
aI-1
aI0
aI0
aI0
aI1
aI0
aI0
aI0
aI-1
aI0
aI0
aI-1
aI-1
aI1
aI1
aI1
aI-1
aI-1
aI-1
aI1
aI-1
aI-1
aI1
aI-1
aI1
aI-1
aI1
aI-1
aI-1
aI0
aI-1
aI1
aI-1
aI0
aI-1
aI-1
aI-1
aI-1
aI-1
aI0
aI-1
aI0
aI-1
aI-1
aI-1
aI-1
aI-1
aI-1
aI-1
aI-1
aI-1
aI-1
aI1
aI1
aI0
aI0
aI0
aI1
aI-1
aI1
aI-1
aI0
aI0
aI-1
aI-1
aI0
aI-1
aI0
aI-1
aI1
aI-1
aI0
aI-1
aI0
aI-1
aI1
aI-1
aI1
aI1
aI-1
aI-1
aI1
aI0
aI0
aI1
aI-1
aI-1
aI-1
aI-1
aI0
aI0
aI-1
aI1
aI1
aI0
aI-1
aI1
aI1
aI0
aI0
aI0
aI-1
aI-1
aI-1
aI-1
aI-1
aI1
aI-1
aI1
aI-1
aI0
aI-1
aI-1
aI1
aI-1
aI-1
aI1
aI1
aI0
aI0
aI-1
aI0
aI-1
aI0
aI-1
aI0
aI1
aI1
aI-1
aI0
aI1
aI1
aI-1
aI1
aI1
aI0
aI1
aI-1
aI-1
aI0
aI-1
aI0
aI0
aI0
aI-1
aI0
aI0
aI0
aI-1
aI-1
aI0
aI0
aI0
aI-1
aI0
aI0
aI1
aI0
aI-1
aI-1
aI-1
aI-1
aI0
aI1
aI0
aI0
aI1
aI0
aI0
aI0
aI1
aI0
aI0
aI0
aI-1
aI0
aI0
aI0
aI0
aI0
aI-1
aI0
aI1
aI-1
aI-1
aI0
aI0
aI0
aI0
aI1
aI1
aI-1
aI1
aI0
aI0
aI0
aI0
aI0
aI0
aI1
aI0
aI0
aI0
aI0
aI0
aI0
aI0
aI-1
aI0
aI0
aI0
aI-1
aI0
aI0
aI0
aI0
aI0
aI1
aI0
aI0
aI0
aI0
aI-1
aI-1
aI0
aI0
aI0
at.